; Function Attrs: mustprogress nounwind uwtable
define dso_local noundef ptr @_ZN4llvm20emitUnaryFloatFnCallEPNS_5ValueEPKNS_17TargetLibraryInfoENS_9StringRefERNS_13IRBuilderBaseERKNS_13AttributeListE(ptr noundef %0, ptr noundef %1, ptr %2, i64 %3, ptr noundef nonnull align 8 dereferenceable(128) %4, ptr noundef nonnull align 8 dereferenceable(8) %5) local_unnamed_addr #0 {
  %7 = alloca %"class.llvm::StringRef", align 8
  %8 = alloca %"class.llvm::SmallString", align 8
  %9 = alloca i32, align 4
  store ptr %2, ptr %7, align 8
  %10 = getelementptr inbounds nuw i8, ptr %7, i64 8
  store i64 %3, ptr %10, align 8
  %11 = getelementptr inbounds i8, ptr %8, i64 24
  call void @_ZN4llvm15SmallVectorBaseImEC2EPvm(ptr noundef nonnull align 8 dereferenceable(24) %8, ptr noundef nonnull %11, i64 noundef 20) #7
  call fastcc void @_ZL16appendTypeSuffixPN4llvm5ValueERNS_9StringRefERNS_11SmallStringILj20EEE(ptr noundef %0, ptr noundef nonnull align 8 dereferenceable(16) %7, ptr noundef nonnull align 8 dereferenceable(44) %8)
  %.sroa.01.0.copyload = load ptr, ptr %7, align 8
  %.sroa.22.0.copyload = load i64, ptr %10, align 8
  %12 = load ptr, ptr %1, align 8
  %13 = call noundef zeroext i1 @_ZNK4llvm21TargetLibraryInfoImpl10getLibFuncENS_9StringRefERNS_7LibFuncE(ptr noundef nonnull align 8 dereferenceable(208) %12, ptr %.sroa.01.0.copyload, i64 %.sroa.22.0.copyload, ptr noundef nonnull align 4 dereferenceable(4) %9) #7
  %14 = load i32, ptr %9, align 4
  %15 = call fastcc noundef ptr @_ZL26emitUnaryFloatFnCallHelperPN4llvm5ValueENS_7LibFuncENS_9StringRefERNS_13IRBuilderBaseERKNS_13AttributeListEPKNS_17TargetLibraryInfoE(ptr noundef %0, i32 noundef %14, ptr %.sroa.01.0.copyload, i64 %.sroa.22.0.copyload, ptr noundef nonnull align 8 dereferenceable(128) %4, ptr noundef nonnull align 8 dereferenceable(8) %5, ptr noundef nonnull %1)
  %16 = call noundef i64 @_ZNK4llvm15SmallVectorBaseImE4sizeEv(ptr noundef nonnull align 8 dereferenceable(24) %8) #7
  %17 = load ptr, ptr %8, align 8
  %18 = icmp eq ptr %17, %11
  br i1 %18, label %_ZN4llvm11SmallStringILj20EED2Ev.exit, label %19

19:                                               ; preds = %6
  call void @free(ptr noundef %17) #7
  br label %_ZN4llvm11SmallStringILj20EED2Ev.exit

_ZN4llvm11SmallStringILj20EED2Ev.exit:            ; preds = %6, %19
  ret ptr %15
}